; Function Attrs: mustprogress nofree norecurse nosync nounwind willreturn memory(argmem: write) uwtable
define dso_local void @_ZN3net20QuicNegotiableUint32C2EjNS_18QuicConfigPresenceE(ptr nocapture noundef nonnull writeonly align 8 dereferenceable(32) %this, i32 noundef %tag, i32 noundef %presence) unnamed_addr #3 align 2 {
entry:
  %tag_.i.i = getelementptr inbounds i8, ptr %this, i64 8
  store i32 %tag, ptr %tag_.i.i, align 8
  %presence_.i.i = getelementptr inbounds i8, ptr %this, i64 12
  store i32 %presence, ptr %presence_.i.i, align 4
  %negotiated_.i = getelementptr inbounds i8, ptr %this, i64 16
  store i8 0, ptr %negotiated_.i, align 8
  store ptr getelementptr inbounds ({ [6 x ptr] }, ptr @_ZTVN3net20QuicNegotiableUint32E, i64 0, i32 0, i64 2), ptr %this, align 8
  %max_value_ = getelementptr inbounds i8, ptr %this, i64 20
  store i32 0, ptr %max_value_, align 4
  %default_value_ = getelementptr inbounds i8, ptr %this, i64 24
  store i32 0, ptr %default_value_, align 8
  %negotiated_value_ = getelementptr inbounds i8, ptr %this, i64 28
  store i32 0, ptr %negotiated_value_, align 4
  ret void
}